; Function Attrs: mustprogress nounwind uwtable
define dso_local { ptr, ptr } @_ZN4llvm25getFunctionAtVTableOffsetEPNS_14GlobalVariableEmRNS_6ModuleE(ptr noundef %0, i64 noundef %1, ptr noundef nonnull align 8 dereferenceable(857) %2) local_unnamed_addr #0 {
  %4 = getelementptr inbounds i8, ptr %0, i64 -32
  %5 = load ptr, ptr %4, align 8
  %6 = tail call noundef ptr @_ZN4llvm18getPointerAtOffsetEPNS_8ConstantEmRNS_6ModuleES1_(ptr noundef %5, i64 noundef %1, ptr noundef nonnull align 8 dereferenceable(857) %2, ptr noundef nonnull %0)
  %.not = icmp eq ptr %6, null
  br i1 %.not, label %.thread, label %7

7:                                                ; preds = %3
  %8 = tail call noundef ptr @_ZNK4llvm5Value17stripPointerCastsEv(ptr noundef nonnull align 8 dereferenceable(24) %6) #4
  %9 = load i8, ptr %8, align 8
  %10 = icmp eq i8 %9, 1
  br i1 %10, label %11, label %16

11:                                               ; preds = %7
  %12 = getelementptr inbounds i8, ptr %8, i64 -32
  %13 = load ptr, ptr %12, align 8
  %14 = load i8, ptr %13, align 8
  %15 = icmp eq i8 %14, 0
  %spec.select = select i1 %15, ptr %8, ptr null
  %spec.select24 = select i1 %15, ptr %13, ptr null
  br label %.thread

16:                                               ; preds = %7
  %17 = icmp eq i8 %9, 0
  %spec.select.i.i = select i1 %17, ptr %8, ptr null
  %.not9 = icmp eq ptr %spec.select.i.i, null
  %spec.select25 = select i1 %.not9, ptr null, ptr %8
  br label %.thread

.thread:                                          ; preds = %16, %11, %3
  %.sroa.4.0 = phi ptr [ null, %3 ], [ %spec.select, %11 ], [ %spec.select25, %16 ]
  %.sroa.0.0 = phi ptr [ null, %3 ], [ %spec.select24, %11 ], [ %spec.select.i.i, %16 ]
  %.fca.0.insert = insertvalue { ptr, ptr } poison, ptr %.sroa.0.0, 0
  %.fca.1.insert = insertvalue { ptr, ptr } %.fca.0.insert, ptr %.sroa.4.0, 1
  ret { ptr, ptr } %.fca.1.insert
}